; Function Attrs: mustprogress sspstrong uwtable
define void @_ZN3tbb6detail2r117threading_control19wait_last_referenceERNS0_2d118unique_scoped_lockINS3_5mutexEEE(ptr noundef nonnull readonly align 8 captures(none) dereferenceable(16) %0, ptr noundef nonnull align 8 dereferenceable(8) %1) local_unnamed_addr #0 align 2 personality ptr @__gxx_personality_v0 {
  %3 = getelementptr inbounds nuw i8, ptr %0, i64 12
  %4 = getelementptr inbounds nuw i8, ptr %0, i64 8
  %5 = load atomic i32, ptr %4 monotonic, align 8
  %6 = icmp eq i32 %5, 1
  br i1 %6, label %.lr.ph6, label %.critedge

.lr.ph6:                                          ; preds = %2, %.critedge2
  %7 = load atomic i32, ptr %3 monotonic, align 4
  %8 = icmp ugt i32 %7, 1
  br i1 %8, label %9, label %.critedge

9:                                                ; preds = %.lr.ph6
  %10 = load ptr, ptr %1, align 8, !tbaa !118
  %11 = atomicrmw xchg ptr %10, i8 0 seq_cst, align 1
  tail call void @_ZN3tbb6detail2r121notify_by_address_oneEPv(ptr noundef nonnull align 1 dereferenceable(1) %10)
  store ptr null, ptr %1, align 8, !tbaa !118
  %12 = load atomic i32, ptr %4 acquire, align 8
  %13 = icmp eq i32 %12, 1
  br i1 %13, label %.lr.ph, label %.critedge2

.lr.ph:                                           ; preds = %9, %16
  %14 = load atomic i32, ptr %3 acquire, align 4
  %15 = icmp ugt i32 %14, 1
  br i1 %15, label %16, label %.critedge2

16:                                               ; preds = %.lr.ph
  %17 = tail call noundef i32 @sched_yield() #16
  %18 = load atomic i32, ptr %4 acquire, align 8
  %19 = icmp eq i32 %18, 1
  br i1 %19, label %.lr.ph, label %.critedge2, !llvm.loop !152

.critedge2:                                       ; preds = %.lr.ph, %16, %9
  tail call void @_ZN3tbb6detail2d118unique_scoped_lockINS1_5mutexEE7acquireERS3_(ptr noundef nonnull align 8 dereferenceable(8) %1, ptr noundef nonnull align 1 dereferenceable(1) @_ZN3tbb6detail2r117threading_control25g_threading_control_mutexE)
  %20 = load atomic i32, ptr %4 monotonic, align 8
  %21 = icmp eq i32 %20, 1
  br i1 %21, label %.lr.ph6, label %.critedge, !llvm.loop !153

.critedge:                                        ; preds = %.lr.ph6, %.critedge2, %2
  ret void
}